; Function Attrs: nounwind uwtable
define internal noundef i32 @_foreach_job_node_array(ptr noundef %0, ptr noundef captures(none) %1) #1 {
  %3 = tail call ptr @config_record_from_node_record(ptr noundef %0) #15
  %4 = load ptr, ptr @job_step_ptr, align 8
  %5 = getelementptr inbounds nuw i8, ptr %4, i64 584
  %6 = load ptr, ptr %5, align 8
  %7 = load i32, ptr %1, align 4
  %8 = sext i32 %7 to i64
  %9 = tail call i64 @bit_ffs_from_bit(ptr noundef %6, i64 noundef %8) #15
  %10 = trunc i64 %9 to i32
  store i32 %10, ptr %1, align 4
  %11 = getelementptr inbounds nuw i8, ptr %0, i64 72
  store ptr %3, ptr %11, align 8
  %12 = load i32, ptr %1, align 4
  tail call void @insert_node_record_at(ptr noundef %0, i32 noundef %12) #15
  %13 = load i32, ptr %1, align 4
  %14 = add nsw i32 %13, 1
  store i32 %14, ptr %1, align 4
  %15 = getelementptr inbounds nuw i8, ptr %0, i64 368
  %16 = load i16, ptr %15, align 8
  %17 = icmp ult i16 %16, 10240
  br i1 %17, label %18, label %19

18:                                               ; preds = %2
  store i16 10240, ptr %15, align 8
  br label %19

19:                                               ; preds = %18, %2
  ret i32 0
}